; Function Attrs: nounwind uwtable
define ptr @Kit_TruthToAig(ptr noundef %0, ptr noundef readonly captures(none) %1, ptr noundef %2, i32 noundef %3, ptr noundef %4) local_unnamed_addr #0 {
  %6 = icmp eq ptr %4, null
  br i1 %6, label %7, label %12

7:                                                ; preds = %5
  %calloc.i = tail call noalias noundef dereferenceable_or_null(16) ptr @calloc(i64 1, i64 16)
  %8 = tail call ptr @Kit_TruthToGraph(ptr noundef %2, i32 noundef %3, ptr noundef %calloc.i) #5
  %9 = getelementptr inbounds nuw i8, ptr %calloc.i, i64 8
  %10 = load ptr, ptr %9, align 8, !tbaa !33
  %.not.i = icmp eq ptr %10, null
  br i1 %.not.i, label %Vec_IntFree.exit, label %11

11:                                               ; preds = %7
  tail call void @free(ptr noundef nonnull %10) #5
  br label %Vec_IntFree.exit

Vec_IntFree.exit:                                 ; preds = %7, %11
  tail call void @free(ptr noundef nonnull %calloc.i) #5
  br label %14

12:                                               ; preds = %5
  %13 = tail call ptr @Kit_TruthToGraph(ptr noundef %2, i32 noundef %3, ptr noundef nonnull %4) #5
  br label %14

14:                                               ; preds = %12, %Vec_IntFree.exit
  %.0 = phi ptr [ %8, %Vec_IntFree.exit ], [ %13, %12 ]
  %15 = tail call ptr @Kit_GraphToAig(ptr noundef %0, ptr noundef %1, ptr noundef %.0)
  tail call void @Kit_GraphFree(ptr noundef %.0) #5
  ret ptr %15
}